; Function Attrs: mustprogress nounwind uwtable
define dso_local void @_ZN4node6crypto10HmacConfigC2EOS1_(ptr noundef nonnull align 8 dereferenceable(88) %this, ptr noundef nonnull align 8 dereferenceable(88) %other) unnamed_addr #3 align 2 {
entry:
  store ptr getelementptr inbounds ({ [10 x ptr] }, ptr @_ZTVN4node6crypto10HmacConfigE, i64 0, i32 0, i64 2), ptr %this, align 8
  %job_mode = getelementptr inbounds i8, ptr %this, i64 8
  %job_mode2 = getelementptr inbounds i8, ptr %other, i64 8
  %0 = load i32, ptr %job_mode2, align 8
  store i32 %0, ptr %job_mode, align 8
  %mode = getelementptr inbounds i8, ptr %this, i64 12
  %mode3 = getelementptr inbounds i8, ptr %other, i64 12
  %1 = load i32, ptr %mode3, align 4
  store i32 %1, ptr %mode, align 4
  %key = getelementptr inbounds i8, ptr %this, i64 16
  %key4 = getelementptr inbounds i8, ptr %other, i64 16
  %2 = load ptr, ptr %key4, align 8
  store ptr %2, ptr %key, align 8
  %_M_refcount.i.i = getelementptr inbounds i8, ptr %this, i64 24
  store ptr null, ptr %_M_refcount.i.i, align 8
  %_M_refcount4.i.i = getelementptr inbounds i8, ptr %other, i64 24
  %3 = load ptr, ptr %_M_refcount4.i.i, align 8
  store ptr null, ptr %_M_refcount4.i.i, align 8
  store ptr %3, ptr %_M_refcount.i.i, align 8
  store ptr null, ptr %key4, align 8
  %data = getelementptr inbounds i8, ptr %this, i64 32
  %data5 = getelementptr inbounds i8, ptr %other, i64 32
  tail call void @_ZN4node6crypto10ByteSourceC1EOS1_(ptr noundef nonnull align 8 dereferenceable(24) %data, ptr noundef nonnull align 8 dereferenceable(24) %data5) #21
  %signature = getelementptr inbounds i8, ptr %this, i64 56
  %signature6 = getelementptr inbounds i8, ptr %other, i64 56
  tail call void @_ZN4node6crypto10ByteSourceC1EOS1_(ptr noundef nonnull align 8 dereferenceable(24) %signature, ptr noundef nonnull align 8 dereferenceable(24) %signature6) #21
  %digest = getelementptr inbounds i8, ptr %this, i64 80
  %digest7 = getelementptr inbounds i8, ptr %other, i64 80
  %4 = load ptr, ptr %digest7, align 8
  store ptr %4, ptr %digest, align 8
  ret void
}